; Function Attrs: mustprogress uwtable
define internal noundef range(i32 5, 4) i32 @_ZN5boost10filesystem6detail12_GLOBAL__N_121fill_random_getrandomEPvm(ptr noundef %0, i64 noundef %1) #4 {
  %.not = icmp eq i64 %1, 0
  br i1 %.not, label %.thread, label %.lr.ph

.lr.ph:                                           ; preds = %2, %18
  %.02034 = phi ptr [ %.121, %18 ], [ %0, %2 ]
  %.02233 = phi i64 [ %.123, %18 ], [ 0, %2 ]
  %3 = sub nuw i64 %1, %.02233
  %4 = tail call i64 @getrandom(ptr noundef %.02034, i64 noundef %3, i32 noundef 0)
  %5 = icmp slt i64 %4, 0
  br i1 %5, label %6, label %15, !prof !11

6:                                                ; preds = %.lr.ph
  %7 = tail call ptr @__errno_location() #15
  %8 = load i32, ptr %7, align 4, !tbaa !8
  %9 = icmp eq i32 %8, 4
  br i1 %9, label %18, label %10, !llvm.loop !13

10:                                               ; preds = %6
  %11 = icmp eq i32 %8, 38
  %12 = icmp eq i64 %.02233, 0
  %or.cond = and i1 %12, %11
  br i1 %or.cond, label %13, label %.thread

13:                                               ; preds = %10
  store atomic volatile i64 ptrtoint (ptr @_ZN5boost10filesystem6detail12_GLOBAL__N_122fill_random_dev_randomEPvm to i64), ptr @_ZN5boost10filesystem6detail12_GLOBAL__N_111fill_randomE monotonic, align 8
  %14 = tail call noundef i32 @_ZN5boost10filesystem6detail12_GLOBAL__N_122fill_random_dev_randomEPvm(ptr noundef %.02034, i64 noundef %1)
  br label %.thread

15:                                               ; preds = %.lr.ph
  %16 = add i64 %4, %.02233
  %17 = getelementptr inbounds i8, ptr %.02034, i64 %4
  br label %18

18:                                               ; preds = %6, %15
  %.123 = phi i64 [ %16, %15 ], [ %.02233, %6 ]
  %.121 = phi ptr [ %17, %15 ], [ %.02034, %6 ]
  %19 = icmp ult i64 %.123, %1
  br i1 %19, label %.lr.ph, label %.thread

.thread:                                          ; preds = %18, %2, %10, %13
  %.3 = phi i32 [ %8, %10 ], [ %14, %13 ], [ 0, %2 ], [ 0, %18 ]
  ret i32 %.3
}